target datalayout = "e-m:e-p270:32:32-p271:32:32-p272:64:64-i64:64-i128:128-f80:128-n8:16:32:64-S128"
target triple = "x86_64-pc-linux-gnu"

%struct.Qureg = type { i32, i32, i32, i64, i64, i32, i32, %struct.ComplexArray, %struct.ComplexArray, %struct.ComplexArray, ptr, ptr, ptr, ptr, ptr, ptr }
%struct.ComplexArray = type { ptr, ptr }

; Function Attrs: nounwind uwtable
define void @shiftSubregIndices(ptr noundef %0, ptr noundef %1, i32 noundef %2, i32 noundef %3) #0 {
  %5 = alloca ptr, align 8
  %6 = alloca ptr, align 8
  %7 = alloca i32, align 4
  %8 = alloca i32, align 4
  %9 = alloca i32, align 4
  %10 = alloca i32, align 4
  %11 = alloca i32, align 4
  %12 = alloca i32, align 4
  store ptr %0, ptr %5, align 8, !tbaa !4
  store ptr %1, ptr %6, align 8, !tbaa !4
  store i32 %2, ptr %7, align 4, !tbaa !9
  store i32 %3, ptr %8, align 4, !tbaa !9
  call void @llvm.lifetime.start.p0(i64 4, ptr %9) #8
  store i32 0, ptr %9, align 4, !tbaa !9
  call void @llvm.lifetime.start.p0(i64 4, ptr %10) #8
  store i32 0, ptr %10, align 4, !tbaa !9
  br label %13

13:                                               ; preds = %41, %4
  %14 = load i32, ptr %10, align 4, !tbaa !9
  %15 = load i32, ptr %7, align 4, !tbaa !9
  %16 = icmp slt i32 %14, %15
  br i1 %16, label %18, label %17

17:                                               ; preds = %13
  store i32 2, ptr %11, align 4
  call void @llvm.lifetime.end.p0(i64 4, ptr %10) #8
  br label %44

18:                                               ; preds = %13
  call void @llvm.lifetime.start.p0(i64 4, ptr %12) #8
  store i32 0, ptr %12, align 4, !tbaa !9
  br label %19

19:                                               ; preds = %37, %18
  %20 = load i32, ptr %12, align 4, !tbaa !9
  %21 = load ptr, ptr %6, align 8, !tbaa !4
  %22 = load i32, ptr %10, align 4, !tbaa !9
  %23 = sext i32 %22 to i64
  %24 = getelementptr inbounds i32, ptr %21, i64 %23
  %25 = load i32, ptr %24, align 4, !tbaa !9
  %26 = icmp slt i32 %20, %25
  br i1 %26, label %28, label %27

27:                                               ; preds = %19
  store i32 5, ptr %11, align 4
  call void @llvm.lifetime.end.p0(i64 4, ptr %12) #8
  br label %40

28:                                               ; preds = %19
  %29 = load i32, ptr %8, align 4, !tbaa !9
  %30 = load ptr, ptr %5, align 8, !tbaa !4
  %31 = load i32, ptr %9, align 4, !tbaa !9
  %32 = add nsw i32 %31, 1
  store i32 %32, ptr %9, align 4, !tbaa !9
  %33 = sext i32 %31 to i64
  %34 = getelementptr inbounds i32, ptr %30, i64 %33
  %35 = load i32, ptr %34, align 4, !tbaa !9
  %36 = add nsw i32 %35, %29
  store i32 %36, ptr %34, align 4, !tbaa !9
  br label %37

37:                                               ; preds = %28
  %38 = load i32, ptr %12, align 4, !tbaa !9
  %39 = add nsw i32 %38, 1
  store i32 %39, ptr %12, align 4, !tbaa !9
  br label %19

40:                                               ; preds = %27
  br label %41

41:                                               ; preds = %40
  %42 = load i32, ptr %10, align 4, !tbaa !9
  %43 = add nsw i32 %42, 1
  store i32 %43, ptr %10, align 4, !tbaa !9
  br label %13

44:                                               ; preds = %17
  call void @llvm.lifetime.end.p0(i64 4, ptr %9) #8
  ret void
}

; Function Attrs: nounwind uwtable
define void @agnostic_applyQFT(ptr noundef byval(%struct.Qureg) align 8 %0, ptr noundef %1, i32 noundef %2) #0 {
  %4 = alloca ptr, align 8
  %5 = alloca i32, align 4
  %6 = alloca i32, align 4
  %7 = alloca i32, align 4
  %8 = alloca i32, align 4
  %9 = alloca i32, align 4
  %10 = alloca [2 x i32], align 4
  %11 = alloca [100 x i32], align 16
  %12 = alloca i32, align 4
  %13 = alloca i32, align 4
  %14 = alloca [1 x double], align 8
  %15 = alloca i32, align 4
  %16 = alloca i32, align 4
  %17 = alloca i32, align 4
  %18 = alloca i32, align 4
  store ptr %1, ptr %4, align 8, !tbaa !4
  store i32 %2, ptr %5, align 4, !tbaa !9
  call void @llvm.lifetime.start.p0(i64 4, ptr %6) #8
  %19 = getelementptr inbounds nuw %struct.Qureg, ptr %0, i32 0, i32 1
  %20 = load i32, ptr %19, align 4, !tbaa !55
  store i32 %20, ptr %6, align 4, !tbaa !9
  call void @llvm.lifetime.start.p0(i64 4, ptr %7) #8
  %21 = load i32, ptr %5, align 4, !tbaa !9
  %22 = sub nsw i32 %21, 1
  store i32 %22, ptr %7, align 4, !tbaa !9
  br label %23

23:                                               ; preds = %110, %3
  %24 = load i32, ptr %7, align 4, !tbaa !9
  %25 = icmp sge i32 %24, 0
  br i1 %25, label %27, label %26

26:                                               ; preds = %23
  store i32 2, ptr %8, align 4
  br label %113

27:                                               ; preds = %23
  %28 = load ptr, ptr %4, align 8, !tbaa !4
  %29 = load i32, ptr %7, align 4, !tbaa !9
  %30 = sext i32 %29 to i64
  %31 = getelementptr inbounds i32, ptr %28, i64 %30
  %32 = load i32, ptr %31, align 4, !tbaa !9
  call void @statevec_hadamard(ptr noundef byval(%struct.Qureg) align 8 %0, i32 noundef %32)
  %33 = getelementptr inbounds nuw %struct.Qureg, ptr %0, i32 0, i32 0
  %34 = load i32, ptr %33, align 8, !tbaa !54
  %35 = icmp ne i32 %34, 0
  br i1 %35, label %36, label %44

36:                                               ; preds = %27
  %37 = load ptr, ptr %4, align 8, !tbaa !4
  %38 = load i32, ptr %7, align 4, !tbaa !9
  %39 = sext i32 %38 to i64
  %40 = getelementptr inbounds i32, ptr %37, i64 %39
  %41 = load i32, ptr %40, align 4, !tbaa !9
  %42 = load i32, ptr %6, align 4, !tbaa !9
  %43 = add nsw i32 %41, %42
  call void @statevec_hadamard(ptr noundef byval(%struct.Qureg) align 8 %0, i32 noundef %43)
  br label %44

44:                                               ; preds = %36, %27
  %45 = load ptr, ptr %4, align 8, !tbaa !4
  %46 = load i32, ptr %7, align 4, !tbaa !9
  %47 = sext i32 %46 to i64
  %48 = getelementptr inbounds i32, ptr %45, i64 %47
  %49 = load i32, ptr %48, align 4, !tbaa !9
  call void @qasm_recordGate(ptr noundef byval(%struct.Qureg) align 8 %0, i32 noundef 5, i32 noundef %49)
  %50 = load i32, ptr %7, align 4, !tbaa !9
  %51 = icmp eq i32 %50, 0
  br i1 %51, label %52, label %53

52:                                               ; preds = %44
  store i32 2, ptr %8, align 4
  br label %113

53:                                               ; preds = %44
  call void @llvm.lifetime.start.p0(i64 4, ptr %9) #8
  store i32 2, ptr %9, align 4, !tbaa !9
  call void @llvm.lifetime.start.p0(i64 8, ptr %10) #8
  %54 = load i32, ptr %7, align 4, !tbaa !9
  store i32 %54, ptr %10, align 4, !tbaa !9
  %55 = getelementptr inbounds i32, ptr %10, i64 1
  store i32 1, ptr %55, align 4, !tbaa !9
  call void @llvm.lifetime.start.p0(i64 400, ptr %11) #8
  call void @llvm.lifetime.start.p0(i64 4, ptr %12) #8
  store i32 0, ptr %12, align 4, !tbaa !9
  br label %56

56:                                               ; preds = %71, %53
  %57 = load i32, ptr %12, align 4, !tbaa !9
  %58 = load i32, ptr %7, align 4, !tbaa !9
  %59 = add nsw i32 %58, 1
  %60 = icmp slt i32 %57, %59
  br i1 %60, label %62, label %61

61:                                               ; preds = %56
  store i32 5, ptr %8, align 4
  call void @llvm.lifetime.end.p0(i64 4, ptr %12) #8
  br label %74

62:                                               ; preds = %56
  %63 = load ptr, ptr %4, align 8, !tbaa !4
  %64 = load i32, ptr %12, align 4, !tbaa !9
  %65 = sext i32 %64 to i64
  %66 = getelementptr inbounds i32, ptr %63, i64 %65
  %67 = load i32, ptr %66, align 4, !tbaa !9
  %68 = load i32, ptr %12, align 4, !tbaa !9
  %69 = sext i32 %68 to i64
  %70 = getelementptr inbounds [100 x i32], ptr %11, i64 0, i64 %69
  store i32 %67, ptr %70, align 4, !tbaa !9
  br label %71

71:                                               ; preds = %62
  %72 = load i32, ptr %12, align 4, !tbaa !9
  %73 = add nsw i32 %72, 1
  store i32 %73, ptr %12, align 4, !tbaa !9
  br label %56

74:                                               ; preds = %61
  call void @llvm.lifetime.start.p0(i64 4, ptr %13) #8
  store i32 1, ptr %13, align 4, !tbaa !9
  call void @llvm.lifetime.start.p0(i64 8, ptr %14) #8
  %75 = load i32, ptr %7, align 4, !tbaa !9
  %76 = shl i32 1, %75
  %77 = sitofp i32 %76 to double
  %78 = fdiv double 0x400921FB54442D18, %77
  store double %78, ptr %14, align 8, !tbaa !18
  call void @llvm.lifetime.start.p0(i64 4, ptr %15) #8
  store i32 0, ptr %15, align 4, !tbaa !9
  %79 = getelementptr inbounds [100 x i32], ptr %11, i64 0, i64 0
  %80 = getelementptr inbounds [2 x i32], ptr %10, i64 0, i64 0
  %81 = load i32, ptr %9, align 4, !tbaa !9
  %82 = getelementptr inbounds [1 x double], ptr %14, i64 0, i64 0
  %83 = load i32, ptr %13, align 4, !tbaa !9
  %84 = load i32, ptr %15, align 4, !tbaa !9
  call void @statevec_applyParamNamedPhaseFuncOverrides(ptr noundef byval(%struct.Qureg) align 8 %0, ptr noundef %79, ptr noundef %80, i32 noundef %81, i32 noundef 0, i32 noundef 6, ptr noundef %82, i32 noundef %83, ptr noundef null, ptr noundef null, i32 noundef 0, i32 noundef %84)
  %85 = getelementptr inbounds nuw %struct.Qureg, ptr %0, i32 0, i32 0
  %86 = load i32, ptr %85, align 8, !tbaa !54
  %87 = icmp ne i32 %86, 0
  br i1 %87, label %88, label %104

88:                                               ; preds = %74
  store i32 1, ptr %15, align 4, !tbaa !9
  %89 = getelementptr inbounds [100 x i32], ptr %11, i64 0, i64 0
  %90 = getelementptr inbounds [2 x i32], ptr %10, i64 0, i64 0
  %91 = load i32, ptr %9, align 4, !tbaa !9
  %92 = load i32, ptr %6, align 4, !tbaa !9
  call void @shiftSubregIndices(ptr noundef %89, ptr noundef %90, i32 noundef %91, i32 noundef %92)
  %93 = getelementptr inbounds [100 x i32], ptr %11, i64 0, i64 0
  %94 = getelementptr inbounds [2 x i32], ptr %10, i64 0, i64 0
  %95 = load i32, ptr %9, align 4, !tbaa !9
  %96 = getelementptr inbounds [1 x double], ptr %14, i64 0, i64 0
  %97 = load i32, ptr %13, align 4, !tbaa !9
  %98 = load i32, ptr %15, align 4, !tbaa !9
  call void @statevec_applyParamNamedPhaseFuncOverrides(ptr noundef byval(%struct.Qureg) align 8 %0, ptr noundef %93, ptr noundef %94, i32 noundef %95, i32 noundef 0, i32 noundef 6, ptr noundef %96, i32 noundef %97, ptr noundef null, ptr noundef null, i32 noundef 0, i32 noundef %98)
  %99 = getelementptr inbounds [100 x i32], ptr %11, i64 0, i64 0
  %100 = getelementptr inbounds [2 x i32], ptr %10, i64 0, i64 0
  %101 = load i32, ptr %9, align 4, !tbaa !9
  %102 = load i32, ptr %6, align 4, !tbaa !9
  %103 = sub nsw i32 0, %102
  call void @shiftSubregIndices(ptr noundef %99, ptr noundef %100, i32 noundef %101, i32 noundef %103)
  br label %104

104:                                              ; preds = %88, %74
  %105 = getelementptr inbounds [100 x i32], ptr %11, i64 0, i64 0
  %106 = getelementptr inbounds [2 x i32], ptr %10, i64 0, i64 0
  %107 = load i32, ptr %9, align 4, !tbaa !9
  %108 = getelementptr inbounds [1 x double], ptr %14, i64 0, i64 0
  %109 = load i32, ptr %13, align 4, !tbaa !9
  call void @qasm_recordNamedPhaseFunc(ptr noundef byval(%struct.Qureg) align 8 %0, ptr noundef %105, ptr noundef %106, i32 noundef %107, i32 noundef 0, i32 noundef 6, ptr noundef %108, i32 noundef %109, ptr noundef null, ptr noundef null, i32 noundef 0)
  call void @llvm.lifetime.end.p0(i64 4, ptr %15) #8
  call void @llvm.lifetime.end.p0(i64 8, ptr %14) #8
  call void @llvm.lifetime.end.p0(i64 4, ptr %13) #8
  call void @llvm.lifetime.end.p0(i64 400, ptr %11) #8
  call void @llvm.lifetime.end.p0(i64 8, ptr %10) #8
  call void @llvm.lifetime.end.p0(i64 4, ptr %9) #8
  br label %110

110:                                              ; preds = %104
  %111 = load i32, ptr %7, align 4, !tbaa !9
  %112 = add nsw i32 %111, -1
  store i32 %112, ptr %7, align 4, !tbaa !9
  br label %23

113:                                              ; preds = %52, %26
  call void @llvm.lifetime.end.p0(i64 4, ptr %7) #8
  br label %114

114:                                              ; preds = %113
  call void @llvm.lifetime.start.p0(i64 4, ptr %16) #8
  store i32 0, ptr %16, align 4, !tbaa !9
  br label %115

115:                                              ; preds = %150, %114
  %116 = load i32, ptr %16, align 4, !tbaa !9
  %117 = load i32, ptr %5, align 4, !tbaa !9
  %118 = sdiv i32 %117, 2
  %119 = icmp slt i32 %116, %118
  br i1 %119, label %121, label %120

120:                                              ; preds = %115
  store i32 8, ptr %8, align 4
  call void @llvm.lifetime.end.p0(i64 4, ptr %16) #8
  br label %153

121:                                              ; preds = %115
  call void @llvm.lifetime.start.p0(i64 4, ptr %17) #8
  %122 = load ptr, ptr %4, align 8, !tbaa !4
  %123 = load i32, ptr %16, align 4, !tbaa !9
  %124 = sext i32 %123 to i64
  %125 = getelementptr inbounds i32, ptr %122, i64 %124
  %126 = load i32, ptr %125, align 4, !tbaa !9
  store i32 %126, ptr %17, align 4, !tbaa !9
  call void @llvm.lifetime.start.p0(i64 4, ptr %18) #8
  %127 = load ptr, ptr %4, align 8, !tbaa !4
  %128 = load i32, ptr %5, align 4, !tbaa !9
  %129 = load i32, ptr %16, align 4, !tbaa !9
  %130 = sub nsw i32 %128, %129
  %131 = sub nsw i32 %130, 1
  %132 = sext i32 %131 to i64
  %133 = getelementptr inbounds i32, ptr %127, i64 %132
  %134 = load i32, ptr %133, align 4, !tbaa !9
  store i32 %134, ptr %18, align 4, !tbaa !9
  %135 = load i32, ptr %17, align 4, !tbaa !9
  %136 = load i32, ptr %18, align 4, !tbaa !9
  call void @statevec_swapQubitAmps(ptr noundef byval(%struct.Qureg) align 8 %0, i32 noundef %135, i32 noundef %136)
  %137 = getelementptr inbounds nuw %struct.Qureg, ptr %0, i32 0, i32 0
  %138 = load i32, ptr %137, align 8, !tbaa !54
  %139 = icmp ne i32 %138, 0
  br i1 %139, label %140, label %147

140:                                              ; preds = %121
  %141 = load i32, ptr %17, align 4, !tbaa !9
  %142 = load i32, ptr %6, align 4, !tbaa !9
  %143 = add nsw i32 %141, %142
  %144 = load i32, ptr %18, align 4, !tbaa !9
  %145 = load i32, ptr %6, align 4, !tbaa !9
  %146 = add nsw i32 %144, %145
  call void @statevec_swapQubitAmps(ptr noundef byval(%struct.Qureg) align 8 %0, i32 noundef %143, i32 noundef %146)
  br label %147

147:                                              ; preds = %140, %121
  %148 = load i32, ptr %17, align 4, !tbaa !9
  %149 = load i32, ptr %18, align 4, !tbaa !9
  call void @qasm_recordControlledGate(ptr noundef byval(%struct.Qureg) align 8 %0, i32 noundef 12, i32 noundef %148, i32 noundef %149)
  call void @llvm.lifetime.end.p0(i64 4, ptr %18) #8
  call void @llvm.lifetime.end.p0(i64 4, ptr %17) #8
  br label %150

150:                                              ; preds = %147
  %151 = load i32, ptr %16, align 4, !tbaa !9
  %152 = add nsw i32 %151, 1
  store i32 %152, ptr %16, align 4, !tbaa !9
  br label %115

153:                                              ; preds = %120
  call void @llvm.lifetime.end.p0(i64 4, ptr %6) #8
  ret void
}