; Function Attrs: nounwind uwtable
define void @agnostic_applyQFT(ptr noundef readonly byval(%struct.Qureg) align 8 captures(none) %0, ptr noundef readonly captures(none) %1, i32 noundef %2) local_unnamed_addr #11 {
  %4 = alloca [2 x i32], align 4
  %5 = alloca [100 x i32], align 16
  %6 = alloca [1 x double], align 8
  %7 = getelementptr inbounds nuw i8, ptr %0, i64 4
  %8 = load i32, ptr %7, align 4, !tbaa !40
  %9 = icmp sgt i32 %2, 0
  br i1 %9, label %.lr.ph69, label %._crit_edge75

.lr.ph69:                                         ; preds = %3
  %10 = load i32, ptr %0, align 8
  %.not = icmp eq i32 %10, 0
  %11 = getelementptr inbounds nuw i8, ptr %4, i64 4
  %12 = add nsw i32 %2, -1
  %13 = zext nneg i32 %12 to i64
  %14 = shl nuw nsw i64 %13, 2
  %15 = add nuw nsw i64 %14, 4
  %16 = zext nneg i32 %2 to i64
  br label %17

17:                                               ; preds = %shiftSubregIndices.exit63, %.lr.ph69
  %indvars.iv = phi i64 [ %16, %.lr.ph69 ], [ %indvars.iv.next, %shiftSubregIndices.exit63 ]
  %indvar = phi i64 [ 0, %.lr.ph69 ], [ %indvar.next, %shiftSubregIndices.exit63 ]
  %18 = shl i64 %indvar, 2
  %19 = sub i64 %15, %18
  %indvars.iv.next = add nsw i64 %indvars.iv, -1
  %20 = getelementptr inbounds nuw i32, ptr %1, i64 %indvars.iv.next
  %21 = load i32, ptr %20, align 4, !tbaa !4
  call void @statevec_hadamard(ptr noundef nonnull byval(%struct.Qureg) align 8 %0, i32 noundef %21) #22
  br i1 %.not, label %25, label %22

22:                                               ; preds = %17
  %23 = load i32, ptr %20, align 4, !tbaa !4
  %24 = add nsw i32 %23, %8
  call void @statevec_hadamard(ptr noundef nonnull byval(%struct.Qureg) align 8 %0, i32 noundef %24) #22
  br label %25

25:                                               ; preds = %22, %17
  %26 = load i32, ptr %20, align 4, !tbaa !4
  call void @qasm_recordGate(ptr noundef nonnull byval(%struct.Qureg) align 8 %0, i32 noundef 5, i32 noundef %26) #22
  %27 = icmp eq i64 %indvars.iv.next, 0
  br i1 %27, label %._crit_edge70, label %._crit_edge

._crit_edge:                                      ; preds = %25
  call void @llvm.lifetime.start.p0(i64 8, ptr nonnull %4) #22
  %28 = trunc nuw nsw i64 %indvars.iv.next to i32
  store i32 %28, ptr %4, align 4, !tbaa !4
  store i32 1, ptr %11, align 4, !tbaa !4
  call void @llvm.lifetime.start.p0(i64 400, ptr nonnull %5) #22
  call void @llvm.memcpy.p0.p0.i64(ptr nonnull align 16 %5, ptr nonnull align 4 %1, i64 %19, i1 false), !tbaa !4
  call void @llvm.lifetime.start.p0(i64 8, ptr nonnull %6) #22
  %29 = shl nuw i32 1, %28
  %30 = sitofp i32 %29 to double
  %31 = fdiv double 0x400921FB54442D18, %30
  store double %31, ptr %6, align 8, !tbaa !13
  call void @statevec_applyParamNamedPhaseFuncOverrides(ptr noundef nonnull byval(%struct.Qureg) align 8 %0, ptr noundef nonnull %5, ptr noundef nonnull %4, i32 noundef 2, i32 noundef 0, i32 noundef 6, ptr noundef nonnull %6, i32 noundef 1, ptr noundef null, ptr noundef null, i32 noundef 0, i32 noundef 0) #22
  br i1 %.not, label %shiftSubregIndices.exit63, label %.preheader.i

.preheader.i:                                     ; preds = %._crit_edge, %._crit_edge.i
  %indvars.iv17.i = phi i64 [ %indvars.iv.next18.i, %._crit_edge.i ], [ 0, %._crit_edge ]
  %.01013.i = phi i32 [ %.1.lcssa.i, %._crit_edge.i ], [ 0, %._crit_edge ]
  %32 = getelementptr inbounds nuw i32, ptr %4, i64 %indvars.iv17.i
  %33 = load i32, ptr %32, align 4, !tbaa !4
  %34 = icmp sgt i32 %33, 0
  br i1 %34, label %.lr.ph.preheader.i, label %._crit_edge.i

.lr.ph.preheader.i:                               ; preds = %.preheader.i
  %35 = sext i32 %.01013.i to i64
  br label %.lr.ph.i

._crit_edge.loopexit.i:                           ; preds = %.lr.ph.i
  %36 = trunc nsw i64 %indvars.iv.next.i to i32
  br label %._crit_edge.i

._crit_edge.i:                                    ; preds = %._crit_edge.loopexit.i, %.preheader.i
  %.1.lcssa.i = phi i32 [ %.01013.i, %.preheader.i ], [ %36, %._crit_edge.loopexit.i ]
  %indvars.iv.next18.i = add nuw nsw i64 %indvars.iv17.i, 1
  %exitcond.not.i = icmp eq i64 %indvars.iv.next18.i, 2
  br i1 %exitcond.not.i, label %shiftSubregIndices.exit, label %.preheader.i

.lr.ph.i:                                         ; preds = %.lr.ph.i, %.lr.ph.preheader.i
  %indvars.iv.i = phi i64 [ %35, %.lr.ph.preheader.i ], [ %indvars.iv.next.i, %.lr.ph.i ]
  %.012.i = phi i32 [ 0, %.lr.ph.preheader.i ], [ %40, %.lr.ph.i ]
  %indvars.iv.next.i = add nsw i64 %indvars.iv.i, 1
  %37 = getelementptr inbounds i32, ptr %5, i64 %indvars.iv.i
  %38 = load i32, ptr %37, align 4, !tbaa !4
  %39 = add nsw i32 %38, %8
  store i32 %39, ptr %37, align 4, !tbaa !4
  %40 = add nuw nsw i32 %.012.i, 1
  %exitcond.not = icmp eq i32 %40, %33
  br i1 %exitcond.not, label %._crit_edge.loopexit.i, label %.lr.ph.i

shiftSubregIndices.exit:                          ; preds = %._crit_edge.i
  call void @statevec_applyParamNamedPhaseFuncOverrides(ptr noundef nonnull byval(%struct.Qureg) align 8 %0, ptr noundef nonnull %5, ptr noundef nonnull %4, i32 noundef 2, i32 noundef 0, i32 noundef 6, ptr noundef nonnull %6, i32 noundef 1, ptr noundef null, ptr noundef null, i32 noundef 0, i32 noundef 1) #22
  br label %.preheader.i50

.preheader.i50:                                   ; preds = %._crit_edge.i53, %shiftSubregIndices.exit
  %indvars.iv17.i51 = phi i64 [ 0, %shiftSubregIndices.exit ], [ %indvars.iv.next18.i55, %._crit_edge.i53 ]
  %.01013.i52 = phi i32 [ 0, %shiftSubregIndices.exit ], [ %.1.lcssa.i54, %._crit_edge.i53 ]
  %41 = getelementptr inbounds nuw i32, ptr %4, i64 %indvars.iv17.i51
  %42 = load i32, ptr %41, align 4, !tbaa !4
  %43 = icmp sgt i32 %42, 0
  br i1 %43, label %.lr.ph.preheader.i57, label %._crit_edge.i53

.lr.ph.preheader.i57:                             ; preds = %.preheader.i50
  %44 = sext i32 %.01013.i52 to i64
  br label %.lr.ph.i58

._crit_edge.loopexit.i62:                         ; preds = %.lr.ph.i58
  %45 = trunc nsw i64 %indvars.iv.next.i61 to i32
  br label %._crit_edge.i53

._crit_edge.i53:                                  ; preds = %._crit_edge.loopexit.i62, %.preheader.i50
  %.1.lcssa.i54 = phi i32 [ %.01013.i52, %.preheader.i50 ], [ %45, %._crit_edge.loopexit.i62 ]
  %indvars.iv.next18.i55 = add nuw nsw i64 %indvars.iv17.i51, 1
  %exitcond.not.i56 = icmp eq i64 %indvars.iv.next18.i55, 2
  br i1 %exitcond.not.i56, label %shiftSubregIndices.exit63, label %.preheader.i50

.lr.ph.i58:                                       ; preds = %.lr.ph.i58, %.lr.ph.preheader.i57
  %indvars.iv.i59 = phi i64 [ %44, %.lr.ph.preheader.i57 ], [ %indvars.iv.next.i61, %.lr.ph.i58 ]
  %.012.i60 = phi i32 [ 0, %.lr.ph.preheader.i57 ], [ %49, %.lr.ph.i58 ]
  %indvars.iv.next.i61 = add nsw i64 %indvars.iv.i59, 1
  %46 = getelementptr inbounds i32, ptr %5, i64 %indvars.iv.i59
  %47 = load i32, ptr %46, align 4, !tbaa !4
  %48 = sub nsw i32 %47, %8
  store i32 %48, ptr %46, align 4, !tbaa !4
  %49 = add nuw nsw i32 %.012.i60, 1
  %exitcond78.not = icmp eq i32 %49, %42
  br i1 %exitcond78.not, label %._crit_edge.loopexit.i62, label %.lr.ph.i58

shiftSubregIndices.exit63:                        ; preds = %._crit_edge.i53, %._crit_edge
  call void @qasm_recordNamedPhaseFunc(ptr noundef nonnull byval(%struct.Qureg) align 8 %0, ptr noundef nonnull %5, ptr noundef nonnull %4, i32 noundef 2, i32 noundef 0, i32 noundef 6, ptr noundef nonnull %6, i32 noundef 1, ptr noundef null, ptr noundef null, i32 noundef 0) #22
  call void @llvm.lifetime.end.p0(i64 8, ptr nonnull %6) #22
  call void @llvm.lifetime.end.p0(i64 400, ptr nonnull %5) #22
  call void @llvm.lifetime.end.p0(i64 8, ptr nonnull %4) #22
  %indvar.next = add nuw nsw i64 %indvar, 1
  br label %17

._crit_edge70:                                    ; preds = %25
  %.not90 = icmp eq i32 %2, 1
  br i1 %.not90, label %._crit_edge75, label %.lr.ph74

.lr.ph74:                                         ; preds = %._crit_edge70
  %50 = lshr i32 %2, 1
  %51 = load i32, ptr %0, align 8
  %.fr = freeze i32 %51
  %.not49 = icmp eq i32 %.fr, 0
  %52 = zext nneg i32 %2 to i64
  %wide.trip.count87 = zext nneg i32 %50 to i64
  %53 = getelementptr i32, ptr %1, i64 %52
  br i1 %.not49, label %.lr.ph74.split.us, label %.lr.ph74.split

.lr.ph74.split.us:                                ; preds = %.lr.ph74, %.lr.ph74.split.us
  %indvars.iv84 = phi i64 [ %indvars.iv.next85, %.lr.ph74.split.us ], [ 0, %.lr.ph74 ]
  %54 = getelementptr inbounds nuw i32, ptr %1, i64 %indvars.iv84
  %55 = load i32, ptr %54, align 4, !tbaa !4
  %56 = xor i64 %indvars.iv84, -1
  %57 = getelementptr i32, ptr %53, i64 %56
  %58 = load i32, ptr %57, align 4, !tbaa !4
  call void @statevec_swapQubitAmps(ptr noundef nonnull byval(%struct.Qureg) align 8 %0, i32 noundef %55, i32 noundef %58) #22
  call void @qasm_recordControlledGate(ptr noundef nonnull byval(%struct.Qureg) align 8 %0, i32 noundef 12, i32 noundef %55, i32 noundef %58) #22
  %indvars.iv.next85 = add nuw nsw i64 %indvars.iv84, 1
  %exitcond88.not = icmp eq i64 %indvars.iv.next85, %wide.trip.count87
  br i1 %exitcond88.not, label %._crit_edge75, label %.lr.ph74.split.us

._crit_edge75:                                    ; preds = %.lr.ph74.split, %.lr.ph74.split.us, %3, %._crit_edge70
  ret void

.lr.ph74.split:                                   ; preds = %.lr.ph74, %.lr.ph74.split
  %indvars.iv80 = phi i64 [ %indvars.iv.next81, %.lr.ph74.split ], [ 0, %.lr.ph74 ]
  %59 = getelementptr inbounds nuw i32, ptr %1, i64 %indvars.iv80
  %60 = load i32, ptr %59, align 4, !tbaa !4
  %61 = xor i64 %indvars.iv80, -1
  %62 = getelementptr i32, ptr %53, i64 %61
  %63 = load i32, ptr %62, align 4, !tbaa !4
  call void @statevec_swapQubitAmps(ptr noundef nonnull byval(%struct.Qureg) align 8 %0, i32 noundef %60, i32 noundef %63) #22
  %64 = add nsw i32 %60, %8
  %65 = add nsw i32 %63, %8
  call void @statevec_swapQubitAmps(ptr noundef nonnull byval(%struct.Qureg) align 8 %0, i32 noundef %64, i32 noundef %65) #22
  call void @qasm_recordControlledGate(ptr noundef nonnull byval(%struct.Qureg) align 8 %0, i32 noundef 12, i32 noundef %60, i32 noundef %63) #22
  %indvars.iv.next81 = add nuw nsw i64 %indvars.iv80, 1
  %exitcond83.not = icmp eq i64 %indvars.iv.next81, %wide.trip.count87
  br i1 %exitcond83.not, label %._crit_edge75, label %.lr.ph74.split
}